target datalayout = "e-m:e-p270:32:32-p271:32:32-p272:64:64-i64:64-i128:128-f80:128-n8:16:32:64-S128"
target triple = "x86_64-pc-linux-gnu"

%"struct.std::array.2" = type { [4 x i64] }
%"class.arrow::GenericBasicDecimal.1" = type { %"struct.std::array.2" }

; Function Attrs: inlinehint mustprogress nounwind uwtable
define linkonce_odr void @_ZSt9__fill_a1IPmmEN9__gnu_cxx11__enable_ifIXsr11__is_scalarIT0_EE7__valueEvE6__typeET_S6_RKS3_(ptr noundef %0, ptr noundef %1, ptr noundef nonnull align 8 dereferenceable(8) %2) #3 comdat {
  %4 = alloca ptr, align 8
  %5 = alloca ptr, align 8
  %6 = alloca ptr, align 8
  %7 = alloca i64, align 8
  store ptr %0, ptr %4, align 8, !tbaa !239
  store ptr %1, ptr %5, align 8, !tbaa !239
  store ptr %2, ptr %6, align 8, !tbaa !239
  call void @llvm.lifetime.start.p0(i64 8, ptr %7) #12
  %8 = load ptr, ptr %6, align 8, !tbaa !239
  %9 = load i64, ptr %8, align 8, !tbaa !8
  store i64 %9, ptr %7, align 8, !tbaa !8
  br label %10

10:                                               ; preds = %17, %3
  %11 = load ptr, ptr %4, align 8, !tbaa !239
  %12 = load ptr, ptr %5, align 8, !tbaa !239
  %13 = icmp ne ptr %11, %12
  br i1 %13, label %14, label %20

14:                                               ; preds = %10
  %15 = load i64, ptr %7, align 8, !tbaa !8
  %16 = load ptr, ptr %4, align 8, !tbaa !239
  store i64 %15, ptr %16, align 8, !tbaa !8
  br label %17

17:                                               ; preds = %14
  %18 = load ptr, ptr %4, align 8, !tbaa !239
  %19 = getelementptr inbounds nuw i64, ptr %18, i32 1
  store ptr %19, ptr %4, align 8, !tbaa !239
  br label %10, !llvm.loop !358

20:                                               ; preds = %10
  call void @llvm.lifetime.end.p0(i64 8, ptr %7) #12
  ret void
}

; Function Attrs: inlinehint mustprogress uwtable
define linkonce_odr void @_ZSt8__fill_aIPmmEvT_S1_RKT0_(ptr noundef %0, ptr noundef %1, ptr noundef nonnull align 8 dereferenceable(8) %2) #8 comdat {
  %4 = alloca ptr, align 8
  %5 = alloca ptr, align 8
  %6 = alloca ptr, align 8
  store ptr %0, ptr %4, align 8, !tbaa !239
  store ptr %1, ptr %5, align 8, !tbaa !239
  store ptr %2, ptr %6, align 8, !tbaa !239
  %7 = load ptr, ptr %4, align 8, !tbaa !239
  %8 = load ptr, ptr %5, align 8, !tbaa !239
  %9 = load ptr, ptr %6, align 8, !tbaa !239
  call void @_ZSt9__fill_a1IPmmEN9__gnu_cxx11__enable_ifIXsr11__is_scalarIT0_EE7__valueEvE6__typeET_S6_RKS3_(ptr noundef %7, ptr noundef %8, ptr noundef nonnull align 8 dereferenceable(8) %9)
  ret void
}

; Function Attrs: mustprogress nounwind uwtable
define linkonce_odr noundef ptr @_ZNSt14__array_traitsImLm4EE6_S_ptrERA4_Km(ptr noundef nonnull align 8 dereferenceable(32) %0) #0 comdat align 2 {
  %2 = alloca ptr, align 8
  store ptr %0, ptr %2, align 8, !tbaa !239
  %3 = load ptr, ptr %2, align 8, !tbaa !239
  %4 = getelementptr inbounds [4 x i64], ptr %3, i64 0, i64 0
  ret ptr %4
}

; Function Attrs: inlinehint mustprogress uwtable
define linkonce_odr noundef ptr @_ZSt10__fill_n_aIPmmmET_S1_T0_RKT1_St26random_access_iterator_tag(ptr noundef %0, i64 noundef %1, ptr noundef nonnull align 8 dereferenceable(8) %2) #8 comdat {
  %4 = alloca ptr, align 8
  %5 = alloca ptr, align 8
  %6 = alloca i64, align 8
  %7 = alloca ptr, align 8
  store ptr %0, ptr %5, align 8, !tbaa !239
  store i64 %1, ptr %6, align 8, !tbaa !8
  store ptr %2, ptr %7, align 8, !tbaa !239
  %8 = load i64, ptr %6, align 8, !tbaa !8
  %9 = icmp ule i64 %8, 0
  br i1 %9, label %10, label %12

10:                                               ; preds = %3
  %11 = load ptr, ptr %5, align 8, !tbaa !239
  store ptr %11, ptr %4, align 8
  br label %21

12:                                               ; preds = %3
  %13 = load ptr, ptr %5, align 8, !tbaa !239
  %14 = load ptr, ptr %5, align 8, !tbaa !239
  %15 = load i64, ptr %6, align 8, !tbaa !8
  %16 = getelementptr inbounds nuw i64, ptr %14, i64 %15
  %17 = load ptr, ptr %7, align 8, !tbaa !239
  call void @_ZSt8__fill_aIPmmEvT_S1_RKT0_(ptr noundef %13, ptr noundef %16, ptr noundef nonnull align 8 dereferenceable(8) %17)
  %18 = load ptr, ptr %5, align 8, !tbaa !239
  %19 = load i64, ptr %6, align 8, !tbaa !8
  %20 = getelementptr inbounds nuw i64, ptr %18, i64 %19
  store ptr %20, ptr %4, align 8
  br label %21

21:                                               ; preds = %12, %10
  %22 = load ptr, ptr %4, align 8
  ret ptr %22
}

; Function Attrs: inlinehint mustprogress nounwind uwtable
define linkonce_odr void @_ZSt19__iterator_categoryIPmENSt15iterator_traitsIT_E17iterator_categoryERKS2_(ptr noundef nonnull align 8 dereferenceable(8) %0) #3 comdat {
  %2 = alloca ptr, align 8
  store ptr %0, ptr %2, align 8, !tbaa !356
  ret void
}

; Function Attrs: inlinehint mustprogress nounwind uwtable
define linkonce_odr noundef i64 @_ZSt17__size_to_integerm(i64 noundef %0) #3 comdat {
  %2 = alloca i64, align 8
  store i64 %0, ptr %2, align 8, !tbaa !8
  %3 = load i64, ptr %2, align 8, !tbaa !8
  ret i64 %3
}

; Function Attrs: mustprogress nounwind willreturn memory(none) uwtable
define linkonce_odr noundef ptr @_ZNSt5arrayImLm4EE4dataEv(ptr noundef nonnull align 8 dereferenceable(32) %0) #5 comdat align 2 {
  %2 = alloca ptr, align 8
  store ptr %0, ptr %2, align 8, !tbaa !20
  %3 = load ptr, ptr %2, align 8
  %4 = getelementptr inbounds nuw %"struct.std::array.2", ptr %3, i32 0, i32 0
  %5 = call noundef ptr @_ZNSt14__array_traitsImLm4EE6_S_ptrERA4_Km(ptr noundef nonnull align 8 dereferenceable(32) %4) #12
  ret ptr %5
}

; Function Attrs: inlinehint mustprogress nounwind uwtable
define internal void @_ZN5arrow8bit_util13little_endianL10FromNativeImLm4EEESt5arrayIT_XT0_EES5_(ptr dead_on_unwind noalias writable sret(%"struct.std::array.2") align 8 %0, ptr noundef byval(%"struct.std::array.2") align 8 %1) #3 {
  %3 = alloca %"struct.std::array.2", align 8
  call void @llvm.memcpy.p0.p0.i64(ptr align 8 %3, ptr align 8 %1, i64 32, i1 false), !tbaa.struct !22
  call void @_ZN5arrow8bit_util13little_endianL8ToNativeImLm4EEESt5arrayIT_XT0_EES5_(ptr dead_on_unwind writable sret(%"struct.std::array.2") align 8 %0, ptr noundef byval(%"struct.std::array.2") align 8 %3)
  ret void
}

; Function Attrs: inlinehint mustprogress uwtable
define linkonce_odr noundef ptr @_ZSt6fill_nIPmmmET_S1_T0_RKT1_(ptr noundef %0, i64 noundef %1, ptr noundef nonnull align 8 dereferenceable(8) %2) #8 comdat {
  %4 = alloca ptr, align 8
  %5 = alloca i64, align 8
  %6 = alloca ptr, align 8
  store ptr %0, ptr %4, align 8, !tbaa !239
  store i64 %1, ptr %5, align 8, !tbaa !8
  store ptr %2, ptr %6, align 8, !tbaa !239
  %7 = load ptr, ptr %4, align 8, !tbaa !239
  %8 = load i64, ptr %5, align 8, !tbaa !8
  %9 = call noundef i64 @_ZSt17__size_to_integerm(i64 noundef %8)
  %10 = load ptr, ptr %6, align 8, !tbaa !239
  call void @_ZSt19__iterator_categoryIPmENSt15iterator_traitsIT_E17iterator_categoryERKS2_(ptr noundef nonnull align 8 dereferenceable(8) %4)
  %11 = call noundef ptr @_ZSt10__fill_n_aIPmmmET_S1_T0_RKT1_St26random_access_iterator_tag(ptr noundef %7, i64 noundef %9, ptr noundef nonnull align 8 dereferenceable(8) %10)
  ret ptr %11
}

; Function Attrs: mustprogress nounwind willreturn memory(none) uwtable
define linkonce_odr noundef i64 @_ZNKSt5arrayImLm4EE4sizeEv(ptr noundef nonnull align 8 dereferenceable(32) %0) #5 comdat align 2 {
  %2 = alloca ptr, align 8
  store ptr %0, ptr %2, align 8, !tbaa !20
  ret i64 4
}

; Function Attrs: mustprogress nounwind willreturn memory(none) uwtable
define linkonce_odr noundef ptr @_ZNSt5arrayImLm4EE5beginEv(ptr noundef nonnull align 8 dereferenceable(32) %0) #5 comdat align 2 {
  %2 = alloca ptr, align 8
  store ptr %0, ptr %2, align 8, !tbaa !20
  %3 = load ptr, ptr %2, align 8
  %4 = call noundef ptr @_ZNSt5arrayImLm4EE4dataEv(ptr noundef nonnull align 8 dereferenceable(32) %3) #14
  ret ptr %4
}

; Function Attrs: mustprogress nounwind uwtable
define linkonce_odr noundef nonnull align 8 dereferenceable(8) ptr @_ZNSt14__array_traitsImLm4EE6_S_refERA4_Kmm(ptr noundef nonnull align 8 dereferenceable(32) %0, i64 noundef %1) #0 comdat align 2 {
  %3 = alloca ptr, align 8
  %4 = alloca i64, align 8
  store ptr %0, ptr %3, align 8, !tbaa !239
  store i64 %1, ptr %4, align 8, !tbaa !8
  %5 = load ptr, ptr %3, align 8, !tbaa !239
  %6 = load i64, ptr %4, align 8, !tbaa !8
  %7 = getelementptr inbounds nuw [4 x i64], ptr %5, i64 0, i64 %6
  ret ptr %7
}

; Function Attrs: inlinehint mustprogress nounwind uwtable
define internal void @_ZN5arrow8bit_util13little_endianL8ToNativeImLm4EEESt5arrayIT_XT0_EES5_(ptr dead_on_unwind noalias writable sret(%"struct.std::array.2") align 8 %0, ptr noundef byval(%"struct.std::array.2") align 8 %1) #3 {
  call void @llvm.memcpy.p0.p0.i64(ptr align 8 %0, ptr align 8 %1, i64 32, i1 false), !tbaa.struct !22
  ret void
}

; Function Attrs: mustprogress nounwind uwtable
define linkonce_odr noundef nonnull align 8 dereferenceable(8) ptr @_ZNKSt5arrayImLm4EEixEm(ptr noundef nonnull align 8 dereferenceable(32) %0, i64 noundef %1) #0 comdat align 2 {
  %3 = alloca ptr, align 8
  %4 = alloca i64, align 8
  store ptr %0, ptr %3, align 8, !tbaa !20
  store i64 %1, ptr %4, align 8, !tbaa !8
  %5 = load ptr, ptr %3, align 8
  %6 = getelementptr inbounds nuw %"struct.std::array.2", ptr %5, i32 0, i32 0
  %7 = load i64, ptr %4, align 8, !tbaa !8
  %8 = call noundef nonnull align 8 dereferenceable(8) ptr @_ZNSt14__array_traitsImLm4EE6_S_refERA4_Kmm(ptr noundef nonnull align 8 dereferenceable(32) %6, i64 noundef %7) #12
  ret ptr %8
}

; Function Attrs: mustprogress uwtable
define weak_odr void @_ZNK5arrow19GenericBasicDecimalINS_15BasicDecimal256ELi256ELi4EE19little_endian_arrayEv(ptr dead_on_unwind noalias writable sret(%"struct.std::array.2") align 8 %0, ptr noundef nonnull align 8 dereferenceable(32) %1) #6 comdat align 2 {
  %3 = alloca ptr, align 8
  %4 = alloca %"struct.std::array.2", align 8
  store ptr %1, ptr %3, align 8, !tbaa !18
  %5 = load ptr, ptr %3, align 8
  %6 = getelementptr inbounds nuw %"class.arrow::GenericBasicDecimal.1", ptr %5, i32 0, i32 0
  call void @llvm.memcpy.p0.p0.i64(ptr align 8 %4, ptr align 8 %6, i64 32, i1 false), !tbaa.struct !22
  call void @_ZN5arrow8bit_util13little_endianL10FromNativeImLm4EEESt5arrayIT_XT0_EES5_(ptr dead_on_unwind writable sret(%"struct.std::array.2") align 8 %0, ptr noundef byval(%"struct.std::array.2") align 8 %4)
  ret void
}

; Function Attrs: mustprogress uwtable
define linkonce_odr void @_ZNSt5arrayImLm4EE4fillERKm(ptr noundef nonnull align 8 dereferenceable(32) %0, ptr noundef nonnull align 8 dereferenceable(8) %1) #6 comdat align 2 {
  %3 = alloca ptr, align 8
  %4 = alloca ptr, align 8
  store ptr %0, ptr %3, align 8, !tbaa !20
  store ptr %1, ptr %4, align 8, !tbaa !239
  %5 = load ptr, ptr %3, align 8
  %6 = call noundef ptr @_ZNSt5arrayImLm4EE5beginEv(ptr noundef nonnull align 8 dereferenceable(32) %5) #14
  %7 = call noundef i64 @_ZNKSt5arrayImLm4EE4sizeEv(ptr noundef nonnull align 8 dereferenceable(32) %5) #14
  %8 = load ptr, ptr %4, align 8, !tbaa !239
  %9 = call noundef ptr @_ZSt6fill_nIPmmmET_S1_T0_RKT1_(ptr noundef %6, i64 noundef %7, ptr noundef nonnull align 8 dereferenceable(8) %8)
  ret void
}

; Function Attrs: mustprogress nounwind uwtable
define linkonce_odr noundef nonnull align 8 dereferenceable(8) ptr @_ZNSt5arrayImLm4EEixEm(ptr noundef nonnull align 8 dereferenceable(32) %0, i64 noundef %1) #0 comdat align 2 {
  %3 = alloca ptr, align 8
  %4 = alloca i64, align 8
  store ptr %0, ptr %3, align 8, !tbaa !20
  store i64 %1, ptr %4, align 8, !tbaa !8
  %5 = load ptr, ptr %3, align 8
  %6 = getelementptr inbounds nuw %"struct.std::array.2", ptr %5, i32 0, i32 0
  %7 = load i64, ptr %4, align 8, !tbaa !8
  %8 = call noundef nonnull align 8 dereferenceable(8) ptr @_ZNSt14__array_traitsImLm4EE6_S_refERA4_Kmm(ptr noundef nonnull align 8 dereferenceable(32) %6, i64 noundef %7) #12
  ret ptr %8
}

; Function Attrs: mustprogress uwtable
define noundef nonnull align 8 dereferenceable(32) ptr @_ZN5arrow15BasicDecimal256rSEj(ptr noundef nonnull align 8 dereferenceable(32) %0, i32 noundef %1) #6 align 2 {
  %3 = alloca ptr, align 8
  %4 = alloca ptr, align 8
  %5 = alloca i32, align 4
  %6 = alloca i64, align 8
  %7 = alloca i32, align 4
  %8 = alloca i32, align 4
  %9 = alloca i32, align 4
  %10 = alloca %"struct.std::array.2", align 8
  %11 = alloca %"struct.std::array.2", align 8
  %12 = alloca i32, align 4
  %13 = alloca i64, align 8
  %14 = alloca %"struct.std::array.2", align 8
  %15 = alloca %"struct.std::array.2", align 8
  store ptr %0, ptr %4, align 8, !tbaa !237
  store i32 %1, ptr %5, align 4, !tbaa !30
  %16 = load ptr, ptr %4, align 8
  %17 = load i32, ptr %5, align 4, !tbaa !30
  %18 = icmp eq i32 %17, 0
  br i1 %18, label %19, label %20

19:                                               ; preds = %2
  store ptr %16, ptr %3, align 8
  br label %87

20:                                               ; preds = %2
  call void @llvm.lifetime.start.p0(i64 8, ptr %6) #12
  %21 = getelementptr inbounds nuw %"class.arrow::GenericBasicDecimal.1", ptr %16, i32 0, i32 0
  %22 = call noundef nonnull align 8 dereferenceable(8) ptr @_ZNSt5arrayImLm4EEixEm(ptr noundef nonnull align 8 dereferenceable(32) %21, i64 noundef 3) #12
  %23 = load i64, ptr %22, align 8, !tbaa !8
  %24 = ashr i64 %23, 63
  store i64 %24, ptr %6, align 8, !tbaa !8
  call void @llvm.lifetime.start.p0(i64 4, ptr %7) #12
  %25 = load i32, ptr %5, align 4, !tbaa !30
  %26 = udiv i32 %25, 64
  store i32 %26, ptr %7, align 4, !tbaa !30
  %27 = load i32, ptr %7, align 4, !tbaa !30
  %28 = icmp sge i32 %27, 4
  br i1 %28, label %29, label %31

29:                                               ; preds = %20
  %30 = getelementptr inbounds nuw %"class.arrow::GenericBasicDecimal.1", ptr %16, i32 0, i32 0
  call void @_ZNSt5arrayImLm4EE4fillERKm(ptr noundef nonnull align 8 dereferenceable(32) %30, ptr noundef nonnull align 8 dereferenceable(8) %6)
  store ptr %16, ptr %3, align 8
  store i32 1, ptr %8, align 4
  br label %86

31:                                               ; preds = %20
  call void @llvm.lifetime.start.p0(i64 4, ptr %9) #12
  %32 = load i32, ptr %5, align 4, !tbaa !30
  %33 = urem i32 %32, 64
  store i32 %33, ptr %9, align 4, !tbaa !30
  call void @llvm.lifetime.start.p0(i64 32, ptr %10) #12
  call void @_ZNK5arrow19GenericBasicDecimalINS_15BasicDecimal256ELi256ELi4EE19little_endian_arrayEv(ptr dead_on_unwind writable sret(%"struct.std::array.2") align 8 %10, ptr noundef nonnull align 8 dereferenceable(32) %16)
  call void @llvm.lifetime.start.p0(i64 32, ptr %11) #12
  call void @_ZNSt5arrayImLm4EE4fillERKm(ptr noundef nonnull align 8 dereferenceable(32) %11, ptr noundef nonnull align 8 dereferenceable(8) %6)
  call void @llvm.lifetime.start.p0(i64 4, ptr %12) #12
  %34 = load i32, ptr %7, align 4, !tbaa !30
  store i32 %34, ptr %12, align 4, !tbaa !30
  br label %35

35:                                               ; preds = %81, %31
  %36 = load i32, ptr %12, align 4, !tbaa !30
  %37 = icmp slt i32 %36, 4
  br i1 %37, label %39, label %38

38:                                               ; preds = %35
  store i32 2, ptr %8, align 4
  call void @llvm.lifetime.end.p0(i64 4, ptr %12) #12
  br label %84

39:                                               ; preds = %35
  %40 = load i32, ptr %12, align 4, !tbaa !30
  %41 = sext i32 %40 to i64
  %42 = call noundef nonnull align 8 dereferenceable(8) ptr @_ZNKSt5arrayImLm4EEixEm(ptr noundef nonnull align 8 dereferenceable(32) %10, i64 noundef %41) #12
  %43 = load i64, ptr %42, align 8, !tbaa !8
  %44 = load i32, ptr %9, align 4, !tbaa !30
  %45 = zext i32 %44 to i64
  %46 = lshr i64 %43, %45
  %47 = load i32, ptr %12, align 4, !tbaa !30
  %48 = load i32, ptr %7, align 4, !tbaa !30
  %49 = sub nsw i32 %47, %48
  %50 = sext i32 %49 to i64
  %51 = call noundef nonnull align 8 dereferenceable(8) ptr @_ZNSt5arrayImLm4EEixEm(ptr noundef nonnull align 8 dereferenceable(32) %11, i64 noundef %50) #12
  store i64 %46, ptr %51, align 8, !tbaa !8
  %52 = load i32, ptr %9, align 4, !tbaa !30
  %53 = icmp ne i32 %52, 0
  br i1 %53, label %54, label %80

54:                                               ; preds = %39
  call void @llvm.lifetime.start.p0(i64 8, ptr %13) #12
  %55 = load i32, ptr %12, align 4, !tbaa !30
  %56 = add nsw i32 %55, 1
  %57 = icmp slt i32 %56, 4
  br i1 %57, label %58, label %64

58:                                               ; preds = %54
  %59 = load i32, ptr %12, align 4, !tbaa !30
  %60 = add nsw i32 %59, 1
  %61 = sext i32 %60 to i64
  %62 = call noundef nonnull align 8 dereferenceable(8) ptr @_ZNKSt5arrayImLm4EEixEm(ptr noundef nonnull align 8 dereferenceable(32) %10, i64 noundef %61) #12
  %63 = load i64, ptr %62, align 8, !tbaa !8
  br label %66

64:                                               ; preds = %54
  %65 = load i64, ptr %6, align 8, !tbaa !8
  br label %66

66:                                               ; preds = %64, %58
  %67 = phi i64 [ %63, %58 ], [ %65, %64 ]
  %68 = load i32, ptr %9, align 4, !tbaa !30
  %69 = sub i32 64, %68
  %70 = zext i32 %69 to i64
  %71 = shl i64 %67, %70
  store i64 %71, ptr %13, align 8, !tbaa !8
  %72 = load i64, ptr %13, align 8, !tbaa !8
  %73 = load i32, ptr %12, align 4, !tbaa !30
  %74 = load i32, ptr %7, align 4, !tbaa !30
  %75 = sub nsw i32 %73, %74
  %76 = sext i32 %75 to i64
  %77 = call noundef nonnull align 8 dereferenceable(8) ptr @_ZNSt5arrayImLm4EEixEm(ptr noundef nonnull align 8 dereferenceable(32) %11, i64 noundef %76) #12
  %78 = load i64, ptr %77, align 8, !tbaa !8
  %79 = or i64 %78, %72
  store i64 %79, ptr %77, align 8, !tbaa !8
  call void @llvm.lifetime.end.p0(i64 8, ptr %13) #12
  br label %80

80:                                               ; preds = %66, %39
  br label %81

81:                                               ; preds = %80
  %82 = load i32, ptr %12, align 4, !tbaa !30
  %83 = add nsw i32 %82, 1
  store i32 %83, ptr %12, align 4, !tbaa !30
  br label %35, !llvm.loop !253

84:                                               ; preds = %38
  call void @llvm.lifetime.start.p0(i64 32, ptr %14) #12
  call void @llvm.memcpy.p0.p0.i64(ptr align 8 %15, ptr align 8 %11, i64 32, i1 false), !tbaa.struct !22
  call void @_ZN5arrow8bit_util13little_endianL8ToNativeImLm4EEESt5arrayIT_XT0_EES5_(ptr dead_on_unwind writable sret(%"struct.std::array.2") align 8 %14, ptr noundef byval(%"struct.std::array.2") align 8 %15)
  %85 = getelementptr inbounds nuw %"class.arrow::GenericBasicDecimal.1", ptr %16, i32 0, i32 0
  call void @llvm.memcpy.p0.p0.i64(ptr align 8 %85, ptr align 8 %14, i64 32, i1 false), !tbaa.struct !22
  call void @llvm.lifetime.end.p0(i64 32, ptr %14) #12
  store ptr %16, ptr %3, align 8
  store i32 1, ptr %8, align 4
  call void @llvm.lifetime.end.p0(i64 32, ptr %11) #12
  call void @llvm.lifetime.end.p0(i64 32, ptr %10) #12
  call void @llvm.lifetime.end.p0(i64 4, ptr %9) #12
  br label %86

86:                                               ; preds = %84, %29
  call void @llvm.lifetime.end.p0(i64 4, ptr %7) #12
  call void @llvm.lifetime.end.p0(i64 8, ptr %6) #12
  br label %87

87:                                               ; preds = %86, %19
  %88 = load ptr, ptr %3, align 8
  ret ptr %88
}