; Function Attrs: mustprogress nofree norecurse nosync nounwind memory(argmem: readwrite) uwtable
define noundef nonnull align 8 dereferenceable(32) ptr @_ZN5arrow15BasicDecimal256rSEj(ptr noundef nonnull returned align 8 captures(ret: address, provenance) dereferenceable(32) %0, i32 noundef %1) local_unnamed_addr #8 align 2 {
  %3 = alloca %"struct.std::array.2", align 8
  %4 = alloca %"struct.std::array.2", align 8
  %5 = icmp eq i32 %1, 0
  br i1 %5, label %_ZNSt5arrayImLm4EE4fillERKm.exit, label %6

6:                                                ; preds = %2
  %7 = getelementptr inbounds nuw i8, ptr %0, i64 24
  %8 = load i64, ptr %7, align 8, !tbaa !7
  %9 = ashr i64 %8, 63
  %10 = lshr i32 %1, 6
  %11 = icmp ugt i32 %1, 255
  br i1 %11, label %.lr.ph.i.i.i.i.i, label %12

.lr.ph.i.i.i.i.i:                                 ; preds = %6, %.lr.ph.i.i.i.i.i
  %.06.i.i.i.i.idx.i = phi i64 [ %.06.i.i.i.i.add.i, %.lr.ph.i.i.i.i.i ], [ 0, %6 ]
  %.06.i.i.i.i.ptr.i = getelementptr inbounds nuw i8, ptr %0, i64 %.06.i.i.i.i.idx.i
  store i64 %9, ptr %.06.i.i.i.i.ptr.i, align 8, !tbaa !7
  %.06.i.i.i.i.add.i = add nuw nsw i64 %.06.i.i.i.i.idx.i, 8
  %.not.i.i.i.i.i = icmp eq i64 %.06.i.i.i.i.add.i, 32
  br i1 %.not.i.i.i.i.i, label %_ZNSt5arrayImLm4EE4fillERKm.exit, label %.lr.ph.i.i.i.i.i, !llvm.loop !32

12:                                               ; preds = %6
  call void @llvm.lifetime.start.p0(i64 32, ptr nonnull %3) #15
  call void @llvm.memcpy.p0.p0.i64(ptr noundef nonnull align 8 dereferenceable(32) %3, ptr noundef nonnull align 8 dereferenceable(32) %0, i64 32, i1 false)
  br label %.lr.ph.i.i.i.i.i24

.lr.ph.i.i.i.i.i24:                               ; preds = %.lr.ph.i.i.i.i.i24, %12
  %.06.i.i.i.i.idx.i25 = phi i64 [ %.06.i.i.i.i.add.i27, %.lr.ph.i.i.i.i.i24 ], [ 0, %12 ]
  %.06.i.i.i.i.ptr.i26 = getelementptr inbounds nuw i8, ptr %4, i64 %.06.i.i.i.i.idx.i25
  store i64 %9, ptr %.06.i.i.i.i.ptr.i26, align 8, !tbaa !7
  %.06.i.i.i.i.add.i27 = add nuw nsw i64 %.06.i.i.i.i.idx.i25, 8
  %.not.i.i.i.i.i28 = icmp eq i64 %.06.i.i.i.i.add.i27, 32
  br i1 %.not.i.i.i.i.i28, label %.lr.ph, label %.lr.ph.i.i.i.i.i24, !llvm.loop !32

.lr.ph:                                           ; preds = %.lr.ph.i.i.i.i.i24
  %13 = and i32 %1, 63
  %14 = zext nneg i32 %13 to i64
  %.not = icmp eq i32 %13, 0
  %15 = sub nuw nsw i32 64, %13
  %16 = zext nneg i32 %15 to i64
  br i1 %.not, label %_ZNSt5arrayImLm4EE4fillERKm.exit29.us.preheader, label %.lr.ph.split.preheader

.lr.ph.split.preheader:                           ; preds = %.lr.ph
  %17 = lshr i32 %1, 6
  %18 = zext nneg i32 %17 to i64
  %19 = zext nneg i32 %10 to i64
  %20 = or disjoint i32 %17, 4
  %21 = sub nuw nsw i32 %20, %10
  %wide.trip.count = zext nneg i32 %21 to i64
  br label %.lr.ph.split

_ZNSt5arrayImLm4EE4fillERKm.exit29.us.preheader:  ; preds = %.lr.ph
  %22 = lshr exact i32 %1, 3
  %23 = zext nneg i32 %22 to i64
  %scevgep = getelementptr i8, ptr %3, i64 %23
  %24 = shl nuw nsw i32 %10, 3
  %narrow = sub nuw nsw i32 32, %24
  %25 = zext nneg i32 %narrow to i64
  call void @llvm.memcpy.p0.p0.i64(ptr nonnull align 8 %4, ptr align 8 %scevgep, i64 %25, i1 false), !tbaa !7
  br label %_ZNSt5arrayImLm4EE4fillERKm.exit29._crit_edge

_ZNSt5arrayImLm4EE4fillERKm.exit29._crit_edge:    ; preds = %_ZNSt5arrayImLm4EE4fillERKm.exit29, %_ZNSt5arrayImLm4EE4fillERKm.exit29.us.preheader
  call void @llvm.memcpy.p0.p0.i64(ptr noundef nonnull align 8 dereferenceable(32) %0, ptr noundef nonnull align 8 dereferenceable(32) %4, i64 32, i1 false), !tbaa.struct !9
  call void @llvm.lifetime.end.p0(i64 32, ptr nonnull %3) #15
  br label %_ZNSt5arrayImLm4EE4fillERKm.exit

.lr.ph.split:                                     ; preds = %.lr.ph.split.preheader, %_ZNSt5arrayImLm4EE4fillERKm.exit29
  %indvars.iv = phi i64 [ %18, %.lr.ph.split.preheader ], [ %indvars.iv.next.pre-phi, %_ZNSt5arrayImLm4EE4fillERKm.exit29 ]
  %26 = getelementptr inbounds nuw [4 x i64], ptr %3, i64 0, i64 %indvars.iv
  %27 = load i64, ptr %26, align 8, !tbaa !7
  %28 = lshr i64 %27, %14
  %29 = sub nuw nsw i64 %indvars.iv, %19
  %30 = getelementptr inbounds nuw [4 x i64], ptr %4, i64 0, i64 %29
  %.not23 = icmp eq i64 %indvars.iv, 3
  br i1 %.not23, label %_ZNSt5arrayImLm4EE4fillERKm.exit29, label %31

31:                                               ; preds = %.lr.ph.split
  %32 = add nuw nsw i64 %indvars.iv, 1
  %33 = getelementptr inbounds nuw [4 x i64], ptr %3, i64 0, i64 %32
  %.in.sroa.speculate.load. = load i64, ptr %33, align 8, !tbaa !7
  br label %_ZNSt5arrayImLm4EE4fillERKm.exit29

_ZNSt5arrayImLm4EE4fillERKm.exit29:               ; preds = %.lr.ph.split, %31
  %indvars.iv.next.pre-phi = phi i64 [ %32, %31 ], [ 4, %.lr.ph.split ]
  %.in.sroa.speculated = phi i64 [ %.in.sroa.speculate.load., %31 ], [ %9, %.lr.ph.split ]
  %34 = shl i64 %.in.sroa.speculated, %16
  %35 = or i64 %34, %28
  store i64 %35, ptr %30, align 8, !tbaa !7
  %exitcond.not = icmp eq i64 %indvars.iv.next.pre-phi, %wide.trip.count
  br i1 %exitcond.not, label %_ZNSt5arrayImLm4EE4fillERKm.exit29._crit_edge, label %.lr.ph.split, !llvm.loop !33

_ZNSt5arrayImLm4EE4fillERKm.exit:                 ; preds = %.lr.ph.i.i.i.i.i, %_ZNSt5arrayImLm4EE4fillERKm.exit29._crit_edge, %2
  ret ptr %0
}